target datalayout = "e-m:e-p270:32:32-p271:32:32-p272:64:64-i64:64-i128:128-f80:128-n8:16:32:64-S128"
target triple = "x86_64-pc-linux-gnu"

%"class.llvm::StringRef" = type { ptr, i64 }
%"struct.llvm::AsmPrinter::XRayFunctionEntry" = type { ptr, ptr, i8, i8, ptr, i8 }

; Function Attrs: mustprogress nounwind uwtable
define linkonce_odr hidden void @_ZN4llvm9StringRefC2EPKcm(ptr noundef nonnull align 8 dereferenceable(16) %0, ptr noundef %1, i64 noundef %2) unnamed_addr #1 comdat align 2 {
  %4 = alloca ptr, align 8
  %5 = alloca ptr, align 8
  %6 = alloca i64, align 8
  store ptr %0, ptr %4, align 8
  store ptr %1, ptr %5, align 8
  store i64 %2, ptr %6, align 8
  %7 = load ptr, ptr %4, align 8
  %8 = getelementptr inbounds nuw %"class.llvm::StringRef", ptr %7, i32 0, i32 0
  %9 = load ptr, ptr %5, align 8
  store ptr %9, ptr %8, align 8
  %10 = getelementptr inbounds nuw %"class.llvm::StringRef", ptr %7, i32 0, i32 1
  %11 = load i64, ptr %6, align 8
  store i64 %11, ptr %10, align 8
  ret void
}

; Function Attrs: mustprogress nounwind uwtable
define dso_local void @_ZNK4llvm10AsmPrinter17XRayFunctionEntry4emitEiPNS_10MCStreamerE(ptr noundef nonnull align 8 dereferenceable(40) %0, i32 noundef %1, ptr noundef %2) #1 align 2 {
  %4 = alloca ptr, align 8
  %5 = alloca i32, align 4
  %6 = alloca ptr, align 8
  %7 = alloca i8, align 1
  %8 = alloca %"class.llvm::StringRef", align 8
  %9 = alloca %"class.llvm::StringRef", align 8
  %10 = alloca %"class.llvm::StringRef", align 8
  %11 = alloca i32, align 4
  store ptr %0, ptr %4, align 8
  store i32 %1, ptr %5, align 4
  store ptr %2, ptr %6, align 8
  %12 = load ptr, ptr %4, align 8
  %13 = getelementptr inbounds nuw %"struct.llvm::AsmPrinter::XRayFunctionEntry", ptr %12, i32 0, i32 2
  %14 = load i8, ptr %13, align 8
  store i8 %14, ptr %7, align 1
  %15 = load ptr, ptr %6, align 8
  call void @_ZN4llvm9StringRefC2EPKcm(ptr noundef nonnull align 8 dereferenceable(16) %8, ptr noundef %7, i64 noundef 1)
  %16 = getelementptr inbounds nuw { ptr, i64 }, ptr %8, i32 0, i32 0
  %17 = load ptr, ptr %16, align 8
  %18 = getelementptr inbounds nuw { ptr, i64 }, ptr %8, i32 0, i32 1
  %19 = load i64, ptr %18, align 8
  %20 = load ptr, ptr %15, align 8
  %21 = getelementptr inbounds ptr, ptr %20, i64 63
  %22 = load ptr, ptr %21, align 8
  call void %22(ptr noundef nonnull align 8 dereferenceable(288) %15, ptr %17, i64 %19)
  %23 = load ptr, ptr %6, align 8
  %24 = getelementptr inbounds nuw %"struct.llvm::AsmPrinter::XRayFunctionEntry", ptr %12, i32 0, i32 3
  call void @_ZN4llvm9StringRefC2EPKcm(ptr noundef nonnull align 8 dereferenceable(16) %9, ptr noundef %24, i64 noundef 1)
  %25 = getelementptr inbounds nuw { ptr, i64 }, ptr %9, i32 0, i32 0
  %26 = load ptr, ptr %25, align 8
  %27 = getelementptr inbounds nuw { ptr, i64 }, ptr %9, i32 0, i32 1
  %28 = load i64, ptr %27, align 8
  %29 = load ptr, ptr %23, align 8
  %30 = getelementptr inbounds ptr, ptr %29, i64 63
  %31 = load ptr, ptr %30, align 8
  call void %31(ptr noundef nonnull align 8 dereferenceable(288) %23, ptr %26, i64 %28)
  %32 = load ptr, ptr %6, align 8
  %33 = getelementptr inbounds nuw %"struct.llvm::AsmPrinter::XRayFunctionEntry", ptr %12, i32 0, i32 5
  call void @_ZN4llvm9StringRefC2EPKcm(ptr noundef nonnull align 8 dereferenceable(16) %10, ptr noundef %33, i64 noundef 1)
  %34 = getelementptr inbounds nuw { ptr, i64 }, ptr %10, i32 0, i32 0
  %35 = load ptr, ptr %34, align 8
  %36 = getelementptr inbounds nuw { ptr, i64 }, ptr %10, i32 0, i32 1
  %37 = load i64, ptr %36, align 8
  %38 = load ptr, ptr %32, align 8
  %39 = getelementptr inbounds ptr, ptr %38, i64 63
  %40 = load ptr, ptr %39, align 8
  call void %40(ptr noundef nonnull align 8 dereferenceable(288) %32, ptr %35, i64 %37)
  %41 = load i32, ptr %5, align 4
  %42 = mul nsw i32 4, %41
  %43 = load i32, ptr %5, align 4
  %44 = mul nsw i32 2, %43
  %45 = add nsw i32 %44, 3
  %46 = sub nsw i32 %42, %45
  store i32 %46, ptr %11, align 4
  %47 = load ptr, ptr %6, align 8
  %48 = load i32, ptr %11, align 4
  %49 = sext i32 %48 to i64
  call void @_ZN4llvm10MCStreamer9emitZerosEm(ptr noundef nonnull align 8 dereferenceable(288) %47, i64 noundef %49)
  ret void
}