; Function Attrs: mustprogress nounwind uwtable
define dso_local void @_ZNK4llvm10AsmPrinter17XRayFunctionEntry4emitEiPNS_10MCStreamerE(ptr noundef nonnull align 8 dereferenceable(40) %0, i32 noundef %1, ptr noundef %2) local_unnamed_addr #0 align 2 {
  %4 = alloca i8, align 1
  %5 = getelementptr inbounds nuw i8, ptr %0, i64 16
  %6 = load i8, ptr %5, align 8
  store i8 %6, ptr %4, align 1
  %7 = load ptr, ptr %2, align 8
  %8 = getelementptr inbounds i8, ptr %7, i64 504
  %9 = load ptr, ptr %8, align 8
  call void %9(ptr noundef nonnull align 8 dereferenceable(288) %2, ptr nonnull %4, i64 1) #33
  %10 = getelementptr inbounds nuw i8, ptr %0, i64 17
  %11 = load ptr, ptr %2, align 8
  %12 = getelementptr inbounds i8, ptr %11, i64 504
  %13 = load ptr, ptr %12, align 8
  call void %13(ptr noundef nonnull align 8 dereferenceable(288) %2, ptr nonnull %10, i64 1) #33
  %14 = getelementptr inbounds nuw i8, ptr %0, i64 32
  %15 = load ptr, ptr %2, align 8
  %16 = getelementptr inbounds i8, ptr %15, i64 504
  %17 = load ptr, ptr %16, align 8
  call void %17(ptr noundef nonnull align 8 dereferenceable(288) %2, ptr nonnull %14, i64 1) #33
  %reass.sub = shl i32 %1, 1
  %18 = add i32 %reass.sub, -3
  %19 = sext i32 %18 to i64
  call void @_ZN4llvm10MCStreamer9emitZerosEm(ptr noundef nonnull align 8 dereferenceable(288) %2, i64 noundef %19) #33
  ret void
}